target datalayout = "e-m:e-p270:32:32-p271:32:32-p272:64:64-i64:64-i128:128-f80:128-n8:16:32:64-S128"
target triple = "x86_64-pc-linux-gnu"

; Function Attrs: inlinehint nounwind uwtable
define internal void @abs_pow34_v(ptr noundef %0, ptr noundef %1, i32 noundef %2) #6 {
  %4 = alloca ptr, align 8
  %5 = alloca ptr, align 8
  %6 = alloca i32, align 4
  %7 = alloca i32, align 4
  %8 = alloca float, align 4
  store ptr %0, ptr %4, align 8, !tbaa !108
  store ptr %1, ptr %5, align 8, !tbaa !108
  store i32 %2, ptr %6, align 4, !tbaa !55
  call void @llvm.lifetime.start.p0(i64 4, ptr %7) #11
  store i32 0, ptr %7, align 4, !tbaa !55
  br label %9

9:                                                ; preds = %30, %3
  %10 = load i32, ptr %7, align 4, !tbaa !55
  %11 = load i32, ptr %6, align 4, !tbaa !55
  %12 = icmp slt i32 %10, %11
  br i1 %12, label %14, label %13

13:                                               ; preds = %9
  call void @llvm.lifetime.end.p0(i64 4, ptr %7) #11
  br label %33

14:                                               ; preds = %9
  call void @llvm.lifetime.start.p0(i64 4, ptr %8) #11
  %15 = load ptr, ptr %5, align 8, !tbaa !108
  %16 = load i32, ptr %7, align 4, !tbaa !55
  %17 = sext i32 %16 to i64
  %18 = getelementptr inbounds float, ptr %15, i64 %17
  %19 = load float, ptr %18, align 4, !tbaa !112
  %20 = call nsz float @llvm.fabs.f32(float %19)
  store float %20, ptr %8, align 4, !tbaa !112
  %21 = load float, ptr %8, align 4, !tbaa !112
  %22 = load float, ptr %8, align 4, !tbaa !112
  %23 = call nsz float @llvm.sqrt.f32(float %22)
  %24 = fmul nsz float %21, %23
  %25 = call nsz float @llvm.sqrt.f32(float %24)
  %26 = load ptr, ptr %4, align 8, !tbaa !108
  %27 = load i32, ptr %7, align 4, !tbaa !55
  %28 = sext i32 %27 to i64
  %29 = getelementptr inbounds float, ptr %26, i64 %28
  store float %25, ptr %29, align 4, !tbaa !112
  call void @llvm.lifetime.end.p0(i64 4, ptr %8) #11
  br label %30

30:                                               ; preds = %14
  %31 = load i32, ptr %7, align 4, !tbaa !55
  %32 = add nsw i32 %31, 1
  store i32 %32, ptr %7, align 4, !tbaa !55
  br label %9, !llvm.loop !195

33:                                               ; preds = %13
  ret void
}